(dp0
Vengine
p1
S'pdflatex'
p2
sVpackages
p3
c__builtin__
set
p4
((lp5
Vkatescodingstyles
p6
aVhyperref
p7
atp8
Rp9
sVfiles_with_guttermarks
p10
g4
((lp11
V/usr/local/texlive/2015/texmf-dist/tex/latex/tcolorbox/tcbminted.code.tex
p12
aS'oop slides.tex'
p13
atp14
Rp15
sVsynctex
p16
I01
s.